target datalayout = "e-m:e-p270:32:32-p271:32:32-p272:64:64-i64:64-i128:128-f80:128-n8:16:32:64-S128"
target triple = "x86_64-pc-linux-gnu"

@.str = private unnamed_addr constant [32 x i8] c"../openssl/crypto/pem/pem_oth.c\00", align 1
@__func__.PEM_ASN1_read_bio = private unnamed_addr constant [18 x i8] c"PEM_ASN1_read_bio\00", align 1

; Function Attrs: nounwind uwtable
define ptr @PEM_ASN1_read_bio(ptr noundef %0, ptr noundef %1, ptr noundef %2, ptr noundef %3, ptr noundef %4, ptr noundef %5) #0 {
  %7 = alloca ptr, align 8
  %8 = alloca ptr, align 8
  %9 = alloca ptr, align 8
  %10 = alloca ptr, align 8
  %11 = alloca ptr, align 8
  %12 = alloca ptr, align 8
  %13 = alloca ptr, align 8
  %14 = alloca ptr, align 8
  %15 = alloca ptr, align 8
  %16 = alloca i64, align 8
  %17 = alloca ptr, align 8
  %18 = alloca i32, align 4
  store ptr %0, ptr %8, align 8, !tbaa !3
  store ptr %1, ptr %9, align 8, !tbaa !7
  store ptr %2, ptr %10, align 8, !tbaa !9
  store ptr %3, ptr %11, align 8, !tbaa !3
  store ptr %4, ptr %12, align 8, !tbaa !3
  store ptr %5, ptr %13, align 8, !tbaa !3
  call void @llvm.lifetime.start.p0(i64 8, ptr %14) #3
  store ptr null, ptr %14, align 8, !tbaa !7
  call void @llvm.lifetime.start.p0(i64 8, ptr %15) #3
  store ptr null, ptr %15, align 8, !tbaa !7
  call void @llvm.lifetime.start.p0(i64 8, ptr %16) #3
  call void @llvm.lifetime.start.p0(i64 8, ptr %17) #3
  store ptr null, ptr %17, align 8, !tbaa !7
  %19 = load ptr, ptr %9, align 8, !tbaa !7
  %20 = load ptr, ptr %10, align 8, !tbaa !9
  %21 = load ptr, ptr %12, align 8, !tbaa !3
  %22 = load ptr, ptr %13, align 8, !tbaa !3
  %23 = call i32 @PEM_bytes_read_bio(ptr noundef %15, ptr noundef %16, ptr noundef null, ptr noundef %19, ptr noundef %20, ptr noundef %21, ptr noundef %22)
  %24 = icmp ne i32 %23, 0
  br i1 %24, label %26, label %25

25:                                               ; preds = %6
  store ptr null, ptr %7, align 8
  store i32 1, ptr %18, align 4
  br label %38

26:                                               ; preds = %6
  %27 = load ptr, ptr %15, align 8, !tbaa !7
  store ptr %27, ptr %14, align 8, !tbaa !7
  %28 = load ptr, ptr %8, align 8, !tbaa !3
  %29 = load ptr, ptr %11, align 8, !tbaa !3
  %30 = load i64, ptr %16, align 8, !tbaa !11
  %31 = call ptr %28(ptr noundef %29, ptr noundef %14, i64 noundef %30)
  store ptr %31, ptr %17, align 8, !tbaa !7
  %32 = load ptr, ptr %17, align 8, !tbaa !7
  %33 = icmp eq ptr %32, null
  br i1 %33, label %34, label %35

34:                                               ; preds = %26
  call void @ERR_new()
  call void @ERR_set_debug(ptr noundef @.str, i32 noundef 33, ptr noundef @__func__.PEM_ASN1_read_bio)
  call void (i32, i32, ptr, ...) @ERR_set_error(i32 noundef 9, i32 noundef 524301, ptr noundef null)
  br label %35

35:                                               ; preds = %34, %26
  %36 = load ptr, ptr %15, align 8, !tbaa !7
  call void @CRYPTO_free(ptr noundef %36, ptr noundef @.str, i32 noundef 34)
  %37 = load ptr, ptr %17, align 8, !tbaa !7
  store ptr %37, ptr %7, align 8
  store i32 1, ptr %18, align 4
  br label %38

38:                                               ; preds = %35, %25
  call void @llvm.lifetime.end.p0(i64 8, ptr %17) #3
  call void @llvm.lifetime.end.p0(i64 8, ptr %16) #3
  call void @llvm.lifetime.end.p0(i64 8, ptr %15) #3
  call void @llvm.lifetime.end.p0(i64 8, ptr %14) #3
  %39 = load ptr, ptr %7, align 8
  ret ptr %39
}

; Function Attrs: nocallback nofree nosync nounwind willreturn memory(argmem: readwrite)
declare void @llvm.lifetime.start.p0(i64 immarg, ptr captures(none)) #1

declare i32 @PEM_bytes_read_bio(ptr noundef, ptr noundef, ptr noundef, ptr noundef, ptr noundef, ptr noundef, ptr noundef) #2

declare void @ERR_new() #2

declare void @ERR_set_debug(ptr noundef, i32 noundef, ptr noundef) #2

declare void @ERR_set_error(i32 noundef, i32 noundef, ptr noundef, ...) #2

declare void @CRYPTO_free(ptr noundef, ptr noundef, i32 noundef) #2

; Function Attrs: nocallback nofree nosync nounwind willreturn memory(argmem: readwrite)
declare void @llvm.lifetime.end.p0(i64 immarg, ptr captures(none)) #1


!llvm.module.flags = !{!0, !1, !2}

!0 = !{i32 1, !"wchar_size", i32 4}
!1 = !{i32 8, !"PIC Level", i32 2}
!2 = !{i32 7, !"uwtable", i32 2}
!3 = !{!4, !4, i64 0}
!4 = !{!"any pointer", !5, i64 0}
!5 = !{!"omnipotent char", !6, i64 0}
!6 = !{!"Simple C/C++ TBAA"}
!7 = !{!8, !8, i64 0}
!8 = !{!"p1 omnipotent char", !4, i64 0}
!9 = !{!10, !10, i64 0}
!10 = !{!"p1 _ZTS6bio_st", !4, i64 0}
!11 = !{!12, !12, i64 0}
!12 = !{!"long", !5, i64 0}
